; Function Attrs: mustprogress uwtable
define noundef zeroext i1 @_ZNK8facebook5velox4core16MemConfigMutable13isValueExistsERKNSt7__cxx1112basic_stringIcSt11char_traitsIcESaIcEEE(ptr noundef nonnull align 8 dereferenceable(72) %this, ptr noundef nonnull align 8 dereferenceable(32) %key) unnamed_addr #0 align 2 personality ptr @__gxx_personality_v0 {
entry:
  %lockedValues = alloca %"class.folly::LockedPtr", align 8
  tail call void @llvm.experimental.noalias.scope.decl(metadata !7)
  %mutex_.i.i = getelementptr inbounds i8, ptr %this, i64 64
  store ptr %mutex_.i.i, ptr %lockedValues, align 8, !alias.scope !7
  %_M_owns.i2.i.i = getelementptr inbounds i8, ptr %lockedValues, i64 8
  store i8 1, ptr %_M_owns.i2.i.i, align 8, !alias.scope !7
  tail call void @_ZN5folly15SharedMutexImplILb0EvSt6atomicNS_24SharedMutexPolicyDefaultEE11lock_sharedEv(ptr noundef nonnull align 4 dereferenceable(4) %mutex_.i.i), !noalias !7
  %add.ptr.i.i = getelementptr inbounds i8, ptr %this, i64 8
  %call.i1 = invoke ptr @_ZNKSt10_HashtableINSt7__cxx1112basic_stringIcSt11char_traitsIcESaIcEEESt4pairIKS5_S5_ESaIS8_ENSt8__detail10_Select1stESt8equal_toIS5_ESt4hashIS5_ENSA_18_Mod_range_hashingENSA_20_Default_ranged_hashENSA_20_Prime_rehash_policyENSA_17_Hashtable_traitsILb1ELb0ELb1EEEE4findERS7_(ptr noundef nonnull align 8 dereferenceable(56) %add.ptr.i.i, ptr noundef nonnull align 8 dereferenceable(32) %key)
          to label %if.then.i.i unwind label %lpad

if.then.i.i:                                      ; preds = %entry
  invoke void @_ZN5folly15SharedMutexImplILb0EvSt6atomicNS_24SharedMutexPolicyDefaultEE13unlock_sharedEv(ptr noundef nonnull align 4 dereferenceable(4) %mutex_.i.i)
          to label %_ZN5folly9LockedPtrIKNS_12SynchronizedISt13unordered_mapINSt7__cxx1112basic_stringIcSt11char_traitsIcESaIcEEES8_St4hashIS8_ESt8equal_toIS8_ESaISt4pairIKS8_S8_EEENS_15SharedMutexImplILb0EvSt6atomicNS_24SharedMutexPolicyDefaultEEEEENS_6detail22SynchronizedLockPolicyILNSO_22SynchronizedMutexLevelE2ELNSO_23SynchronizedMutexMethodE0EEEED2Ev.exit unwind label %terminate.lpad.i.i

terminate.lpad.i.i:                               ; preds = %if.then.i.i
  %0 = landingpad { ptr, i32 }
          catch ptr null
  %1 = extractvalue { ptr, i32 } %0, 0
  tail call void @__clang_call_terminate(ptr %1) #14
  unreachable

_ZN5folly9LockedPtrIKNS_12SynchronizedISt13unordered_mapINSt7__cxx1112basic_stringIcSt11char_traitsIcESaIcEEES8_St4hashIS8_ESt8equal_toIS8_ESaISt4pairIKS8_S8_EEENS_15SharedMutexImplILb0EvSt6atomicNS_24SharedMutexPolicyDefaultEEEEENS_6detail22SynchronizedLockPolicyILNSO_22SynchronizedMutexLevelE2ELNSO_23SynchronizedMutexMethodE0EEEED2Ev.exit: ; preds = %if.then.i.i
  %cmp.i = icmp ne ptr %call.i1, null
  ret i1 %cmp.i

lpad:                                             ; preds = %entry
  %2 = landingpad { ptr, i32 }
          cleanup
  call void @_ZN5folly9LockedPtrIKNS_12SynchronizedISt13unordered_mapINSt7__cxx1112basic_stringIcSt11char_traitsIcESaIcEEES8_St4hashIS8_ESt8equal_toIS8_ESaISt4pairIKS8_S8_EEENS_15SharedMutexImplILb0EvSt6atomicNS_24SharedMutexPolicyDefaultEEEEENS_6detail22SynchronizedLockPolicyILNSO_22SynchronizedMutexLevelE2ELNSO_23SynchronizedMutexMethodE0EEEED2Ev(ptr noundef nonnull align 8 dereferenceable(16) %lockedValues) #13
  resume { ptr, i32 } %2
}